; Function Attrs: nounwind uwtable
define internal fastcc i32 @imap_perform_upgrade_tls(ptr noundef %0, ptr noundef %1) unnamed_addr #0 {
  %3 = alloca i8, align 1
  call void @llvm.lifetime.start.p0(i64 1, ptr nonnull %3) #7
  store i8 0, ptr %3, align 1, !tbaa !8
  %4 = tail call zeroext i1 @Curl_conn_is_ssl(ptr noundef %1, i32 noundef 0) #7
  br i1 %4, label %7, label %5

5:                                                ; preds = %2
  %6 = tail call i32 @Curl_ssl_cfilter_add(ptr noundef %0, ptr noundef %1, i32 noundef 0) #7
  %.not = icmp eq i32 %6, 0
  br i1 %.not, label %7, label %imap_perform_capability.exit

7:                                                ; preds = %5, %2
  %8 = call i32 @Curl_conn_connect(ptr noundef %0, i32 noundef 0, i1 noundef zeroext false, ptr noundef nonnull %3) #7
  %.not16 = icmp eq i32 %8, 0
  br i1 %.not16, label %9, label %imap_perform_capability.exit

9:                                                ; preds = %7
  %10 = load i8, ptr %3, align 1, !tbaa !8, !range !112, !noundef !113
  %11 = getelementptr inbounds nuw i8, ptr %1, i64 1339
  %12 = load i8, ptr %11, align 1
  %13 = and i8 %12, -2
  %14 = or disjoint i8 %13, %10
  store i8 %14, ptr %11, align 1
  %15 = getelementptr inbounds nuw i8, ptr %1, i64 1328
  %16 = load i32, ptr %15, align 8, !tbaa !110
  %.not17 = icmp eq i32 %16, 4
  br i1 %.not17, label %20, label %17

17:                                               ; preds = %9
  %18 = getelementptr i8, ptr %0, i64 24
  %.val = load ptr, ptr %18, align 8, !tbaa !98
  %19 = getelementptr inbounds nuw i8, ptr %.val, i64 1328
  store i32 4, ptr %19, align 8, !tbaa !110
  %.pre = load i8, ptr %11, align 1
  br label %20

20:                                               ; preds = %17, %9
  %21 = phi i8 [ %.pre, %17 ], [ %14, %9 ]
  %22 = and i8 %21, 1
  %.not18 = icmp eq i8 %22, 0
  br i1 %.not18, label %imap_perform_capability.exit, label %23

23:                                               ; preds = %20
  %24 = getelementptr inbounds nuw i8, ptr %1, i64 960
  store ptr @Curl_handler_imaps, ptr %24, align 8, !tbaa !153
  %25 = getelementptr inbounds nuw i8, ptr %1, i64 952
  %26 = load i64, ptr %25, align 8
  %27 = or i64 %26, 134217728
  store i64 %27, ptr %25, align 8
  %28 = getelementptr inbounds nuw i8, ptr %1, i64 1272
  store i16 0, ptr %28, align 8, !tbaa !138
  %29 = getelementptr inbounds nuw i8, ptr %1, i64 1276
  store i16 0, ptr %29, align 4, !tbaa !132
  %30 = and i8 %21, -5
  store i8 %30, ptr %11, align 1
  %31 = call i32 (ptr, ptr, ...) @imap_sendf(ptr noundef %0, ptr noundef nonnull @.str.3)
  %.not.i = icmp eq i32 %31, 0
  br i1 %.not.i, label %32, label %imap_perform_capability.exit

32:                                               ; preds = %23
  %33 = getelementptr i8, ptr %0, i64 24
  %.val.i = load ptr, ptr %33, align 8, !tbaa !98
  %34 = getelementptr inbounds nuw i8, ptr %.val.i, i64 1328
  store i32 2, ptr %34, align 8, !tbaa !110
  br label %imap_perform_capability.exit

imap_perform_capability.exit:                     ; preds = %32, %23, %7, %20, %5
  %.0 = phi i32 [ %8, %7 ], [ 0, %20 ], [ %6, %5 ], [ %31, %23 ], [ 0, %32 ]
  call void @llvm.lifetime.end.p0(i64 1, ptr nonnull %3) #7
  ret i32 %.0
}